; Function Attrs: nounwind sspstrong uwtable
define internal i64 @time_s_mkutc(i32 noundef %0, ptr noundef readonly captures(none) %1, i64 noundef %2) #1 {
  %4 = alloca %struct.vtm, align 8
  call void @llvm.lifetime.start.p0(i64 40, ptr nonnull %4) #21
  call fastcc void @time_arg(i32 noundef %0, ptr noundef %1, ptr noundef %4)
  %5 = call fastcc i64 @timegmw(ptr noundef nonnull %4)
  %6 = tail call i64 @rb_data_typed_object_zalloc(i64 noundef %2, i64 noundef 48, ptr noundef nonnull @time_data_type) #21
  %7 = inttoptr i64 %6 to ptr
  %8 = getelementptr inbounds nuw i8, ptr %7, i64 24
  %9 = load i64, ptr %8, align 8, !tbaa !20
  %10 = and i64 %9, 2
  %.not.i.i.i = icmp eq i64 %10, 0
  %11 = getelementptr i8, ptr %7, i64 32
  br i1 %.not.i.i.i, label %12, label %time_s_alloc.exit.i

12:                                               ; preds = %3
  %13 = load ptr, ptr %11, align 8, !tbaa !24
  br label %time_s_alloc.exit.i

time_s_alloc.exit.i:                              ; preds = %12, %3
  %14 = phi ptr [ %13, %12 ], [ %11, %3 ]
  %15 = getelementptr inbounds nuw i8, ptr %14, i64 40
  %16 = load i64, ptr %15, align 8
  %17 = and i64 %16, -131941395333121
  %18 = or disjoint i64 %17, 26388279066624
  store i64 %18, ptr %15, align 8
  store i64 1, ptr %14, align 8, !tbaa !25
  %19 = getelementptr inbounds nuw i8, ptr %14, i64 32
  store i64 4, ptr %19, align 8, !tbaa !29
  %20 = load i64, ptr %8, align 8, !tbaa !20
  %21 = and i64 %20, 2
  %.not.i.i = icmp eq i64 %21, 0
  br i1 %.not.i.i, label %22, label %RTYPEDDATA_GET_DATA.exit.i

22:                                               ; preds = %time_s_alloc.exit.i
  %23 = load ptr, ptr %11, align 8, !tbaa !24
  br label %RTYPEDDATA_GET_DATA.exit.i

RTYPEDDATA_GET_DATA.exit.i:                       ; preds = %22, %time_s_alloc.exit.i
  %24 = phi ptr [ %23, %22 ], [ %11, %time_s_alloc.exit.i ]
  %25 = getelementptr inbounds nuw i8, ptr %24, i64 40
  %26 = load i64, ptr %25, align 8
  %27 = and i64 %26, -61572651155457
  store i64 %27, ptr %25, align 8
  store i64 %5, ptr %24, align 8, !tbaa !25
  %28 = and i64 %5, 1
  %.not.i6.i = icmp eq i64 %28, 0
  br i1 %.not.i6.i, label %29, label %time_new_timew.exit

29:                                               ; preds = %RTYPEDDATA_GET_DATA.exit.i
  %30 = icmp eq i64 %5, 0
  %31 = and i64 %5, 6
  %32 = icmp ne i64 %31, 0
  %33 = or i1 %30, %32
  br i1 %33, label %time_new_timew.exit, label %34

34:                                               ; preds = %29
  tail call void @rb_gc_writebarrier(i64 noundef %6, i64 noundef %5) #21
  br label %time_new_timew.exit

time_new_timew.exit:                              ; preds = %RTYPEDDATA_GET_DATA.exit.i, %29, %34
  %35 = tail call i64 @time_gmtime(i64 noundef %6)
  call void @llvm.lifetime.end.p0(i64 40, ptr nonnull %4) #21
  ret i64 %6
}